target datalayout = "e-m:e-p270:32:32-p271:32:32-p272:64:64-i64:64-i128:128-f80:128-n8:16:32:64-S128"
target triple = "x86_64-pc-linux-gnu"

%class.Metadata = type { ptr }
%class.OopHandle = type { ptr }
%class.AccessFlags = type { i32 }
%class.InstanceKlass = type { %class.Klass.base, ptr, ptr, ptr, ptr, ptr, ptr, ptr, ptr, ptr, ptr, i32, i32, i32, i32, i16, i16, i16, i16, i8, i8, i8, i8, %class.InstanceKlassFlags, ptr, ptr, ptr, ptr, ptr, i64, ptr, ptr, ptr, ptr, ptr, ptr, ptr, ptr, ptr, ptr, ptr, ptr, ptr }
%class.Klass.base = type <{ %class.Metadata, i32, i32, i32, i32, ptr, ptr, ptr, [8 x ptr], %class.OopHandle, ptr, ptr, ptr, ptr, ptr, i32, %class.AccessFlags, i64, i64, i8, i8, i16, i16, [2 x i8], i32 }>
%class.InstanceKlassFlags = type <{ i16, i8, i8 }>

; Function Attrs: mustprogress nounwind uwtable
define linkonce_odr hidden noundef zeroext i1 @_ZNK13InstanceKlass17is_in_error_stateEv(ptr noundef nonnull align 8 dereferenceable(464) %0) #1 comdat align 2 {
  %2 = alloca ptr, align 8
  store ptr %0, ptr %2, align 8
  %3 = load ptr, ptr %2, align 8
  %4 = getelementptr inbounds %class.InstanceKlass, ptr %3, i32 0, i32 20
  %5 = load volatile i8, ptr %4, align 1
  %6 = zext i8 %5 to i32
  %7 = icmp eq i32 %6, 5
  ret i1 %7
}

; Function Attrs: mustprogress nounwind uwtable
define linkonce_odr hidden noundef zeroext i1 @_ZNK13InstanceKlass14is_initializedEv(ptr noundef nonnull align 8 dereferenceable(464) %0) #1 comdat align 2 {
  %2 = alloca ptr, align 8
  store ptr %0, ptr %2, align 8
  %3 = load ptr, ptr %2, align 8
  %4 = getelementptr inbounds %class.InstanceKlass, ptr %3, i32 0, i32 20
  %5 = load volatile i8, ptr %4, align 1
  %6 = zext i8 %5 to i32
  %7 = icmp eq i32 %6, 4
  ret i1 %7
}

; Function Attrs: mustprogress nounwind uwtable
define linkonce_odr hidden noundef zeroext i1 @_ZNK13InstanceKlass9is_linkedEv(ptr noundef nonnull align 8 dereferenceable(464) %0) #1 comdat align 2 {
  %2 = alloca ptr, align 8
  store ptr %0, ptr %2, align 8
  %3 = load ptr, ptr %2, align 8
  %4 = getelementptr inbounds %class.InstanceKlass, ptr %3, i32 0, i32 20
  %5 = load volatile i8, ptr %4, align 1
  %6 = zext i8 %5 to i32
  %7 = icmp sge i32 %6, 2
  ret i1 %7
}

; Function Attrs: mustprogress nounwind uwtable
define hidden noundef i32 @_ZNK13InstanceKlass18jvmti_class_statusEv(ptr noundef nonnull align 8 dereferenceable(464) %0) unnamed_addr #1 align 2 {
  %2 = alloca ptr, align 8
  %3 = alloca i32, align 4
  store ptr %0, ptr %2, align 8
  %4 = load ptr, ptr %2, align 8
  store i32 0, ptr %3, align 4
  %5 = call noundef zeroext i1 @_ZNK13InstanceKlass9is_linkedEv(ptr noundef nonnull align 8 dereferenceable(464) %4)
  br i1 %5, label %6, label %9

6:                                                ; preds = %1
  %7 = load i32, ptr %3, align 4
  %8 = or i32 %7, 3
  store i32 %8, ptr %3, align 4
  br label %9

9:                                                ; preds = %6, %1
  %10 = call noundef zeroext i1 @_ZNK13InstanceKlass14is_initializedEv(ptr noundef nonnull align 8 dereferenceable(464) %4)
  br i1 %10, label %11, label %14

11:                                               ; preds = %9
  %12 = load i32, ptr %3, align 4
  %13 = or i32 %12, 4
  store i32 %13, ptr %3, align 4
  br label %14

14:                                               ; preds = %11, %9
  %15 = call noundef zeroext i1 @_ZNK13InstanceKlass17is_in_error_stateEv(ptr noundef nonnull align 8 dereferenceable(464) %4)
  br i1 %15, label %16, label %19

16:                                               ; preds = %14
  %17 = load i32, ptr %3, align 4
  %18 = or i32 %17, 8
  store i32 %18, ptr %3, align 4
  br label %19

19:                                               ; preds = %16, %14
  %20 = load i32, ptr %3, align 4
  ret i32 %20
}