; Function Attrs: mustprogress nofree norecurse nounwind willreturn memory(argmem: readwrite, inaccessiblemem: readwrite) uwtable
define hidden noundef range(i32 0, 16) i32 @_ZNK13InstanceKlass18jvmti_class_statusEv(ptr noundef nonnull align 8 dereferenceable(464) %0) unnamed_addr #4 align 2 {
  %2 = getelementptr inbounds i8, ptr %0, i64 305
  %3 = load volatile i8, ptr %2, align 1
  %4 = icmp ugt i8 %3, 1
  %spec.select = select i1 %4, i32 3, i32 0
  %5 = load volatile i8, ptr %2, align 1
  %6 = icmp eq i8 %5, 4
  %7 = or disjoint i32 %spec.select, 4
  %.1 = select i1 %6, i32 %7, i32 %spec.select
  %8 = load volatile i8, ptr %2, align 1
  %9 = icmp eq i8 %8, 5
  %10 = or disjoint i32 %.1, 8
  %.2 = select i1 %9, i32 %10, i32 %.1
  ret i32 %.2
}